target datalayout = "e-m:e-p270:32:32-p271:32:32-p272:64:64-i64:64-i128:128-f80:128-n8:16:32:64-S128"
target triple = "x86_64-pc-linux-gnu"

%struct.clientReplyBlock = type { i64, i64, [0 x i8] }
%struct.client = type { i64, i64, ptr, i8, i8, i8, i8, i32, ptr, ptr, ptr, ptr, ptr, i64, i64, i32, ptr, i32, i32, ptr, i64, ptr, ptr, ptr, ptr, ptr, i32, i32, i64, ptr, i64, ptr, i64, i64, i64, i32, ptr, i64, i64, i32, i32, i32, i32, i64, i64, ptr, i64, i64, i64, i64, i64, i64, i64, i64, [41 x i8], i32, ptr, i32, i32, i64, %struct.multiState, %struct.blockingState, i64, ptr, ptr, ptr, ptr, ptr, ptr, ptr, ptr, ptr, ptr, ptr, ptr, ptr, ptr, i64, ptr, i64, i32, ptr, ptr, ptr, i64, %struct.listNode, i64, i64, i32, i64, ptr }
%struct.multiState = type { ptr, i32, i32, i32, i64, i32 }
%struct.blockingState = type { i32, i64, i32, ptr, i32, i32, i64, ptr, ptr, i64 }
%struct.listNode = type { ptr, ptr, ptr }
%struct.connection = type { ptr, i32, i32, i32, i16, i16, i16, ptr, ptr, ptr, ptr, ptr }
%struct.ConnectionType = type { ptr, ptr, ptr, ptr, ptr, ptr, ptr, ptr, ptr, ptr, ptr, ptr, ptr, ptr, ptr, ptr, ptr, ptr, ptr, ptr, ptr, ptr, ptr, ptr, ptr, ptr, ptr, ptr, ptr, ptr }
%struct.listIter = type { ptr, i32 }
%struct.iovec = type { ptr, i64 }

; Function Attrs: inlinehint nounwind uwtable
define internal i32 @connWritev(ptr noundef %0, ptr noundef %1, i32 noundef %2) #4 {
  %4 = alloca ptr, align 8
  %5 = alloca ptr, align 8
  %6 = alloca i32, align 4
  store ptr %0, ptr %4, align 8, !tbaa !69
  store ptr %1, ptr %5, align 8, !tbaa !334
  store i32 %2, ptr %6, align 4, !tbaa !19
  %7 = load ptr, ptr %4, align 8, !tbaa !69
  %8 = getelementptr inbounds nuw %struct.connection, ptr %7, i32 0, i32 0
  %9 = load ptr, ptr %8, align 8, !tbaa !151
  %10 = getelementptr inbounds nuw %struct.ConnectionType, ptr %9, i32 0, i32 17
  %11 = load ptr, ptr %10, align 8, !tbaa !336
  %12 = load ptr, ptr %4, align 8, !tbaa !69
  %13 = load ptr, ptr %5, align 8, !tbaa !334
  %14 = load i32, ptr %6, align 4, !tbaa !19
  %15 = call i32 %11(ptr noundef %12, ptr noundef %13, i32 noundef %14)
  ret i32 %15
}

; Function Attrs: nounwind uwtable
define internal i32 @_writevToClient(ptr noundef %0, ptr noundef %1) #0 {
  %3 = alloca i32, align 4
  %4 = alloca ptr, align 8
  %5 = alloca ptr, align 8
  %6 = alloca i32, align 4
  %7 = alloca i32, align 4
  %8 = alloca ptr, align 8
  %9 = alloca i64, align 8
  %10 = alloca i64, align 8
  %11 = alloca i64, align 8
  %12 = alloca %struct.listIter, align 8
  %13 = alloca ptr, align 8
  %14 = alloca ptr, align 8
  %15 = alloca i32, align 4
  %16 = alloca i64, align 8
  %17 = alloca i32, align 4
  store ptr %0, ptr %4, align 8, !tbaa !24
  store ptr %1, ptr %5, align 8, !tbaa !256
  call void @llvm.lifetime.start.p0(i64 4, ptr %6) #16
  store i32 0, ptr %6, align 4, !tbaa !19
  call void @llvm.lifetime.start.p0(i64 4, ptr %7) #16
  %18 = load ptr, ptr %4, align 8, !tbaa !24
  %19 = getelementptr inbounds nuw %struct.client, ptr %18, i32 0, i32 2
  %20 = load ptr, ptr %19, align 8, !tbaa !75
  %21 = getelementptr inbounds nuw %struct.connection, ptr %20, i32 0, i32 6
  %22 = load i16, ptr %21, align 8, !tbaa !328
  %23 = zext i16 %22 to i32
  %24 = icmp slt i32 1024, %23
  br i1 %24, label %25, label %26

25:                                               ; preds = %2
  br label %33

26:                                               ; preds = %2
  %27 = load ptr, ptr %4, align 8, !tbaa !24
  %28 = getelementptr inbounds nuw %struct.client, ptr %27, i32 0, i32 2
  %29 = load ptr, ptr %28, align 8, !tbaa !75
  %30 = getelementptr inbounds nuw %struct.connection, ptr %29, i32 0, i32 6
  %31 = load i16, ptr %30, align 8, !tbaa !328
  %32 = zext i16 %31 to i32
  br label %33

33:                                               ; preds = %26, %25
  %34 = phi i32 [ 1024, %25 ], [ %32, %26 ]
  store i32 %34, ptr %7, align 4, !tbaa !19
  %35 = load i32, ptr %7, align 4, !tbaa !19
  %36 = zext i32 %35 to i64
  %37 = call ptr @llvm.stacksave.p0()
  store ptr %37, ptr %8, align 8
  %38 = alloca %struct.iovec, i64 %36, align 16
  store i64 %36, ptr %9, align 8
  call void @llvm.lifetime.start.p0(i64 8, ptr %10) #16
  store i64 0, ptr %10, align 8, !tbaa !20
  %39 = load ptr, ptr %4, align 8, !tbaa !24
  %40 = getelementptr inbounds nuw %struct.client, ptr %39, i32 0, i32 88
  %41 = load i32, ptr %40, align 8, !tbaa !79
  %42 = icmp sgt i32 %41, 0
  br i1 %42, label %43, label %75

43:                                               ; preds = %33
  %44 = load ptr, ptr %4, align 8, !tbaa !24
  %45 = getelementptr inbounds nuw %struct.client, ptr %44, i32 0, i32 90
  %46 = load ptr, ptr %45, align 8, !tbaa !71
  %47 = load ptr, ptr %4, align 8, !tbaa !24
  %48 = getelementptr inbounds nuw %struct.client, ptr %47, i32 0, i32 32
  %49 = load i64, ptr %48, align 8, !tbaa !103
  %50 = getelementptr inbounds nuw i8, ptr %46, i64 %49
  %51 = load i32, ptr %6, align 4, !tbaa !19
  %52 = sext i32 %51 to i64
  %53 = getelementptr inbounds %struct.iovec, ptr %38, i64 %52
  %54 = getelementptr inbounds nuw %struct.iovec, ptr %53, i32 0, i32 0
  store ptr %50, ptr %54, align 16, !tbaa !329
  %55 = load ptr, ptr %4, align 8, !tbaa !24
  %56 = getelementptr inbounds nuw %struct.client, ptr %55, i32 0, i32 88
  %57 = load i32, ptr %56, align 8, !tbaa !79
  %58 = sext i32 %57 to i64
  %59 = load ptr, ptr %4, align 8, !tbaa !24
  %60 = getelementptr inbounds nuw %struct.client, ptr %59, i32 0, i32 32
  %61 = load i64, ptr %60, align 8, !tbaa !103
  %62 = sub i64 %58, %61
  %63 = load i32, ptr %6, align 4, !tbaa !19
  %64 = sext i32 %63 to i64
  %65 = getelementptr inbounds %struct.iovec, ptr %38, i64 %64
  %66 = getelementptr inbounds nuw %struct.iovec, ptr %65, i32 0, i32 1
  store i64 %62, ptr %66, align 8, !tbaa !331
  %67 = load i32, ptr %6, align 4, !tbaa !19
  %68 = add nsw i32 %67, 1
  store i32 %68, ptr %6, align 4, !tbaa !19
  %69 = sext i32 %67 to i64
  %70 = getelementptr inbounds %struct.iovec, ptr %38, i64 %69
  %71 = getelementptr inbounds nuw %struct.iovec, ptr %70, i32 0, i32 1
  %72 = load i64, ptr %71, align 8, !tbaa !331
  %73 = load i64, ptr %10, align 8, !tbaa !20
  %74 = add i64 %73, %72
  store i64 %74, ptr %10, align 8, !tbaa !20
  br label %75

75:                                               ; preds = %43, %33
  call void @llvm.lifetime.start.p0(i64 8, ptr %11) #16
  %76 = load ptr, ptr %4, align 8, !tbaa !24
  %77 = getelementptr inbounds nuw %struct.client, ptr %76, i32 0, i32 88
  %78 = load i32, ptr %77, align 8, !tbaa !79
  %79 = icmp sgt i32 %78, 0
  br i1 %79, label %80, label %81

80:                                               ; preds = %75
  br label %85

81:                                               ; preds = %75
  %82 = load ptr, ptr %4, align 8, !tbaa !24
  %83 = getelementptr inbounds nuw %struct.client, ptr %82, i32 0, i32 32
  %84 = load i64, ptr %83, align 8, !tbaa !103
  br label %85

85:                                               ; preds = %81, %80
  %86 = phi i64 [ 0, %80 ], [ %84, %81 ]
  store i64 %86, ptr %11, align 8, !tbaa !20
  call void @llvm.lifetime.start.p0(i64 16, ptr %12) #16
  call void @llvm.lifetime.start.p0(i64 8, ptr %13) #16
  call void @llvm.lifetime.start.p0(i64 8, ptr %14) #16
  %87 = load ptr, ptr %4, align 8, !tbaa !24
  %88 = getelementptr inbounds nuw %struct.client, ptr %87, i32 0, i32 29
  %89 = load ptr, ptr %88, align 8, !tbaa !125
  call void @listRewind(ptr noundef %89, ptr noundef %12)
  br label %90

90:                                               ; preds = %122, %110, %85
  %91 = call ptr @listNext(ptr noundef %12)
  store ptr %91, ptr %13, align 8, !tbaa !167
  %92 = icmp ne ptr %91, null
  br i1 %92, label %93, label %100

93:                                               ; preds = %90
  %94 = load i32, ptr %6, align 4, !tbaa !19
  %95 = load i32, ptr %7, align 4, !tbaa !19
  %96 = icmp slt i32 %94, %95
  br i1 %96, label %97, label %100

97:                                               ; preds = %93
  %98 = load i64, ptr %10, align 8, !tbaa !20
  %99 = icmp ult i64 %98, 65536
  br label %100

100:                                              ; preds = %97, %93, %90
  %101 = phi i1 [ false, %93 ], [ false, %90 ], [ %99, %97 ]
  br i1 %101, label %102, label %149

102:                                              ; preds = %100
  %103 = load ptr, ptr %13, align 8, !tbaa !167
  %104 = getelementptr inbounds nuw %struct.listNode, ptr %103, i32 0, i32 2
  %105 = load ptr, ptr %104, align 8, !tbaa !168
  store ptr %105, ptr %14, align 8, !tbaa !22
  %106 = load ptr, ptr %14, align 8, !tbaa !22
  %107 = getelementptr inbounds nuw %struct.clientReplyBlock, ptr %106, i32 0, i32 1
  %108 = load i64, ptr %107, align 8, !tbaa !20
  %109 = icmp eq i64 %108, 0
  br i1 %109, label %110, label %122

110:                                              ; preds = %102
  %111 = load ptr, ptr %14, align 8, !tbaa !22
  %112 = getelementptr inbounds nuw %struct.clientReplyBlock, ptr %111, i32 0, i32 0
  %113 = load i64, ptr %112, align 8, !tbaa !20
  %114 = load ptr, ptr %4, align 8, !tbaa !24
  %115 = getelementptr inbounds nuw %struct.client, ptr %114, i32 0, i32 30
  %116 = load i64, ptr %115, align 8, !tbaa !127
  %117 = sub i64 %116, %113
  store i64 %117, ptr %115, align 8, !tbaa !127
  %118 = load ptr, ptr %4, align 8, !tbaa !24
  %119 = getelementptr inbounds nuw %struct.client, ptr %118, i32 0, i32 29
  %120 = load ptr, ptr %119, align 8, !tbaa !125
  %121 = load ptr, ptr %13, align 8, !tbaa !167
  call void @listDelNode(ptr noundef %120, ptr noundef %121)
  store i64 0, ptr %11, align 8, !tbaa !20
  br label %90, !llvm.loop !332

122:                                              ; preds = %102
  %123 = load ptr, ptr %14, align 8, !tbaa !22
  %124 = getelementptr inbounds nuw %struct.clientReplyBlock, ptr %123, i32 0, i32 2
  %125 = getelementptr inbounds [0 x i8], ptr %124, i64 0, i64 0
  %126 = load i64, ptr %11, align 8, !tbaa !20
  %127 = getelementptr inbounds nuw i8, ptr %125, i64 %126
  %128 = load i32, ptr %6, align 4, !tbaa !19
  %129 = sext i32 %128 to i64
  %130 = getelementptr inbounds %struct.iovec, ptr %38, i64 %129
  %131 = getelementptr inbounds nuw %struct.iovec, ptr %130, i32 0, i32 0
  store ptr %127, ptr %131, align 16, !tbaa !329
  %132 = load ptr, ptr %14, align 8, !tbaa !22
  %133 = getelementptr inbounds nuw %struct.clientReplyBlock, ptr %132, i32 0, i32 1
  %134 = load i64, ptr %133, align 8, !tbaa !20
  %135 = load i64, ptr %11, align 8, !tbaa !20
  %136 = sub i64 %134, %135
  %137 = load i32, ptr %6, align 4, !tbaa !19
  %138 = sext i32 %137 to i64
  %139 = getelementptr inbounds %struct.iovec, ptr %38, i64 %138
  %140 = getelementptr inbounds nuw %struct.iovec, ptr %139, i32 0, i32 1
  store i64 %136, ptr %140, align 8, !tbaa !331
  %141 = load i32, ptr %6, align 4, !tbaa !19
  %142 = add nsw i32 %141, 1
  store i32 %142, ptr %6, align 4, !tbaa !19
  %143 = sext i32 %141 to i64
  %144 = getelementptr inbounds %struct.iovec, ptr %38, i64 %143
  %145 = getelementptr inbounds nuw %struct.iovec, ptr %144, i32 0, i32 1
  %146 = load i64, ptr %145, align 8, !tbaa !331
  %147 = load i64, ptr %10, align 8, !tbaa !20
  %148 = add i64 %147, %146
  store i64 %148, ptr %10, align 8, !tbaa !20
  store i64 0, ptr %11, align 8, !tbaa !20
  br label %90, !llvm.loop !332

149:                                              ; preds = %100
  %150 = load i32, ptr %6, align 4, !tbaa !19
  %151 = icmp eq i32 %150, 0
  br i1 %151, label %152, label %153

152:                                              ; preds = %149
  store i32 0, ptr %3, align 4
  store i32 1, ptr %15, align 4
  br label %252

153:                                              ; preds = %149
  %154 = load ptr, ptr %4, align 8, !tbaa !24
  %155 = getelementptr inbounds nuw %struct.client, ptr %154, i32 0, i32 2
  %156 = load ptr, ptr %155, align 8, !tbaa !75
  %157 = load i32, ptr %6, align 4, !tbaa !19
  %158 = call i32 @connWritev(ptr noundef %156, ptr noundef %38, i32 noundef %157)
  %159 = sext i32 %158 to i64
  %160 = load ptr, ptr %5, align 8, !tbaa !256
  store i64 %159, ptr %160, align 8, !tbaa !20
  %161 = load ptr, ptr %5, align 8, !tbaa !256
  %162 = load i64, ptr %161, align 8, !tbaa !20
  %163 = icmp sle i64 %162, 0
  br i1 %163, label %164, label %165

164:                                              ; preds = %153
  store i32 -1, ptr %3, align 4
  store i32 1, ptr %15, align 4
  br label %252

165:                                              ; preds = %153
  call void @llvm.lifetime.start.p0(i64 8, ptr %16) #16
  %166 = load ptr, ptr %5, align 8, !tbaa !256
  %167 = load i64, ptr %166, align 8, !tbaa !20
  store i64 %167, ptr %16, align 8, !tbaa !20
  %168 = load ptr, ptr %4, align 8, !tbaa !24
  %169 = getelementptr inbounds nuw %struct.client, ptr %168, i32 0, i32 88
  %170 = load i32, ptr %169, align 8, !tbaa !79
  %171 = icmp sgt i32 %170, 0
  br i1 %171, label %172, label %201

172:                                              ; preds = %165
  call void @llvm.lifetime.start.p0(i64 4, ptr %17) #16
  %173 = load ptr, ptr %4, align 8, !tbaa !24
  %174 = getelementptr inbounds nuw %struct.client, ptr %173, i32 0, i32 88
  %175 = load i32, ptr %174, align 8, !tbaa !79
  %176 = sext i32 %175 to i64
  %177 = load ptr, ptr %4, align 8, !tbaa !24
  %178 = getelementptr inbounds nuw %struct.client, ptr %177, i32 0, i32 32
  %179 = load i64, ptr %178, align 8, !tbaa !103
  %180 = sub i64 %176, %179
  %181 = trunc i64 %180 to i32
  store i32 %181, ptr %17, align 4, !tbaa !19
  %182 = load i64, ptr %16, align 8, !tbaa !20
  %183 = load ptr, ptr %4, align 8, !tbaa !24
  %184 = getelementptr inbounds nuw %struct.client, ptr %183, i32 0, i32 32
  %185 = load i64, ptr %184, align 8, !tbaa !103
  %186 = add i64 %185, %182
  store i64 %186, ptr %184, align 8, !tbaa !103
  %187 = load i64, ptr %16, align 8, !tbaa !20
  %188 = load i32, ptr %17, align 4, !tbaa !19
  %189 = sext i32 %188 to i64
  %190 = icmp sge i64 %187, %189
  br i1 %190, label %191, label %196

191:                                              ; preds = %172
  %192 = load ptr, ptr %4, align 8, !tbaa !24
  %193 = getelementptr inbounds nuw %struct.client, ptr %192, i32 0, i32 88
  store i32 0, ptr %193, align 8, !tbaa !79
  %194 = load ptr, ptr %4, align 8, !tbaa !24
  %195 = getelementptr inbounds nuw %struct.client, ptr %194, i32 0, i32 32
  store i64 0, ptr %195, align 8, !tbaa !103
  br label %196

196:                                              ; preds = %191, %172
  %197 = load i32, ptr %17, align 4, !tbaa !19
  %198 = sext i32 %197 to i64
  %199 = load i64, ptr %16, align 8, !tbaa !20
  %200 = sub nsw i64 %199, %198
  store i64 %200, ptr %16, align 8, !tbaa !20
  call void @llvm.lifetime.end.p0(i64 4, ptr %17) #16
  br label %201

201:                                              ; preds = %196, %165
  %202 = load ptr, ptr %4, align 8, !tbaa !24
  %203 = getelementptr inbounds nuw %struct.client, ptr %202, i32 0, i32 29
  %204 = load ptr, ptr %203, align 8, !tbaa !125
  call void @listRewind(ptr noundef %204, ptr noundef %12)
  br label %205

205:                                              ; preds = %228, %201
  %206 = load i64, ptr %16, align 8, !tbaa !20
  %207 = icmp sgt i64 %206, 0
  br i1 %207, label %208, label %251

208:                                              ; preds = %205
  %209 = call ptr @listNext(ptr noundef %12)
  store ptr %209, ptr %13, align 8, !tbaa !167
  %210 = load ptr, ptr %13, align 8, !tbaa !167
  %211 = getelementptr inbounds nuw %struct.listNode, ptr %210, i32 0, i32 2
  %212 = load ptr, ptr %211, align 8, !tbaa !168
  store ptr %212, ptr %14, align 8, !tbaa !22
  %213 = load i64, ptr %16, align 8, !tbaa !20
  %214 = load ptr, ptr %14, align 8, !tbaa !22
  %215 = getelementptr inbounds nuw %struct.clientReplyBlock, ptr %214, i32 0, i32 1
  %216 = load i64, ptr %215, align 8, !tbaa !20
  %217 = load ptr, ptr %4, align 8, !tbaa !24
  %218 = getelementptr inbounds nuw %struct.client, ptr %217, i32 0, i32 32
  %219 = load i64, ptr %218, align 8, !tbaa !103
  %220 = sub i64 %216, %219
  %221 = icmp slt i64 %213, %220
  br i1 %221, label %222, label %228

222:                                              ; preds = %208
  %223 = load i64, ptr %16, align 8, !tbaa !20
  %224 = load ptr, ptr %4, align 8, !tbaa !24
  %225 = getelementptr inbounds nuw %struct.client, ptr %224, i32 0, i32 32
  %226 = load i64, ptr %225, align 8, !tbaa !103
  %227 = add i64 %226, %223
  store i64 %227, ptr %225, align 8, !tbaa !103
  br label %251

228:                                              ; preds = %208
  %229 = load ptr, ptr %14, align 8, !tbaa !22
  %230 = getelementptr inbounds nuw %struct.clientReplyBlock, ptr %229, i32 0, i32 1
  %231 = load i64, ptr %230, align 8, !tbaa !20
  %232 = load ptr, ptr %4, align 8, !tbaa !24
  %233 = getelementptr inbounds nuw %struct.client, ptr %232, i32 0, i32 32
  %234 = load i64, ptr %233, align 8, !tbaa !103
  %235 = sub i64 %231, %234
  %236 = load i64, ptr %16, align 8, !tbaa !20
  %237 = sub nsw i64 %236, %235
  store i64 %237, ptr %16, align 8, !tbaa !20
  %238 = load ptr, ptr %14, align 8, !tbaa !22
  %239 = getelementptr inbounds nuw %struct.clientReplyBlock, ptr %238, i32 0, i32 0
  %240 = load i64, ptr %239, align 8, !tbaa !20
  %241 = load ptr, ptr %4, align 8, !tbaa !24
  %242 = getelementptr inbounds nuw %struct.client, ptr %241, i32 0, i32 30
  %243 = load i64, ptr %242, align 8, !tbaa !127
  %244 = sub i64 %243, %240
  store i64 %244, ptr %242, align 8, !tbaa !127
  %245 = load ptr, ptr %4, align 8, !tbaa !24
  %246 = getelementptr inbounds nuw %struct.client, ptr %245, i32 0, i32 29
  %247 = load ptr, ptr %246, align 8, !tbaa !125
  %248 = load ptr, ptr %13, align 8, !tbaa !167
  call void @listDelNode(ptr noundef %247, ptr noundef %248)
  %249 = load ptr, ptr %4, align 8, !tbaa !24
  %250 = getelementptr inbounds nuw %struct.client, ptr %249, i32 0, i32 32
  store i64 0, ptr %250, align 8, !tbaa !103
  br label %205, !llvm.loop !333

251:                                              ; preds = %222, %205
  store i32 0, ptr %3, align 4
  store i32 1, ptr %15, align 4
  call void @llvm.lifetime.end.p0(i64 8, ptr %16) #16
  br label %252

252:                                              ; preds = %251, %164, %152
  call void @llvm.lifetime.end.p0(i64 8, ptr %14) #16
  call void @llvm.lifetime.end.p0(i64 8, ptr %13) #16
  call void @llvm.lifetime.end.p0(i64 16, ptr %12) #16
  call void @llvm.lifetime.end.p0(i64 8, ptr %11) #16
  call void @llvm.lifetime.end.p0(i64 8, ptr %10) #16
  %253 = load ptr, ptr %8, align 8
  call void @llvm.stackrestore.p0(ptr %253)
  call void @llvm.lifetime.end.p0(i64 4, ptr %7) #16
  call void @llvm.lifetime.end.p0(i64 4, ptr %6) #16
  %254 = load i32, ptr %3, align 4
  ret i32 %254
}