; Function Attrs: nounwind uwtable
define internal fastcc range(i32 -1, 1) i32 @_writevToClient(ptr noundef captures(none) %0, ptr noundef nonnull writeonly captures(none) %1) unnamed_addr #0 {
  %3 = alloca %struct.listIter, align 8
  %4 = getelementptr inbounds nuw i8, ptr %0, i64 16
  %5 = load ptr, ptr %4, align 8, !tbaa !75
  %6 = getelementptr inbounds nuw i8, ptr %5, i64 24
  %7 = load i16, ptr %6, align 8, !tbaa !280
  %narrow = tail call i16 @llvm.umin.i16(i16 %7, i16 1024)
  %8 = zext nneg i16 %narrow to i64
  %9 = alloca %struct.iovec, i64 %8, align 16
  %10 = getelementptr inbounds nuw i8, ptr %0, i64 776
  %11 = load i32, ptr %10, align 8, !tbaa !76
  %12 = icmp sgt i32 %11, 0
  br i1 %12, label %.thread, label %21

.thread:                                          ; preds = %2
  %13 = getelementptr inbounds nuw i8, ptr %0, i64 792
  %14 = load ptr, ptr %13, align 8, !tbaa !71
  %15 = getelementptr inbounds nuw i8, ptr %0, i64 208
  %16 = load i64, ptr %15, align 8, !tbaa !85
  %17 = getelementptr inbounds nuw i8, ptr %14, i64 %16
  store ptr %17, ptr %9, align 16, !tbaa !281
  %18 = zext nneg i32 %11 to i64
  %19 = sub i64 %18, %16
  %20 = getelementptr inbounds nuw i8, ptr %9, i64 8
  store i64 %19, ptr %20, align 8, !tbaa !283
  br label %24

21:                                               ; preds = %2
  %22 = getelementptr inbounds nuw i8, ptr %0, i64 208
  %23 = load i64, ptr %22, align 8, !tbaa !85
  br label %24

24:                                               ; preds = %.thread, %21
  %.06982 = phi i64 [ 0, %21 ], [ %19, %.thread ]
  %.07181 = phi i32 [ 0, %21 ], [ 1, %.thread ]
  %25 = phi i64 [ %23, %21 ], [ 0, %.thread ]
  call void @llvm.lifetime.start.p0(i64 16, ptr nonnull %3) #26
  %26 = getelementptr inbounds nuw i8, ptr %0, i64 184
  %27 = load ptr, ptr %26, align 8, !tbaa !96
  call void @listRewind(ptr noundef %27, ptr noundef nonnull %3) #26
  %28 = call ptr @listNext(ptr noundef nonnull %3) #26
  %.not8897 = icmp eq ptr %28, null
  br i1 %.not8897, label %.critedge, label %.lr.ph.lr.ph

.lr.ph.lr.ph:                                     ; preds = %24
  %29 = getelementptr inbounds nuw i8, ptr %0, i64 192
  %30 = zext nneg i32 %.07181 to i64
  %31 = zext nneg i16 %narrow to i64
  br label %.lr.ph

.lr.ph:                                           ; preds = %.lr.ph.lr.ph, %.outer
  %indvars.iv = phi i64 [ %30, %.lr.ph.lr.ph ], [ %indvars.iv.next, %.outer ]
  %32 = phi ptr [ %28, %.lr.ph.lr.ph ], [ %59, %.outer ]
  %.068.ph100 = phi i64 [ %25, %.lr.ph.lr.ph ], [ 0, %.outer ]
  %.170.ph99 = phi i64 [ %.06982, %.lr.ph.lr.ph ], [ %58, %.outer ]
  %33 = icmp samesign ult i64 %indvars.iv, %31
  %34 = icmp ult i64 %.170.ph99, 65536
  %or.cond = select i1 %33, i1 %34, i1 false
  br i1 %or.cond, label %.lr.ph.split, label %.critedge.loopexit112

.lr.ph.split:                                     ; preds = %.lr.ph
  %35 = getelementptr inbounds nuw i8, ptr %32, i64 16
  %36 = load ptr, ptr %35, align 8, !tbaa !123
  %37 = getelementptr inbounds nuw i8, ptr %36, i64 8
  %38 = load i64, ptr %37, align 8, !tbaa !16
  %39 = icmp eq i64 %38, 0
  br i1 %39, label %.lr.ph93, label %.outer

40:                                               ; preds = %.lr.ph93
  %41 = getelementptr inbounds nuw i8, ptr %52, i64 16
  %42 = load ptr, ptr %41, align 8, !tbaa !123
  %43 = getelementptr inbounds nuw i8, ptr %42, i64 8
  %44 = load i64, ptr %43, align 8, !tbaa !16
  %45 = icmp eq i64 %44, 0
  br i1 %45, label %.lr.ph93, label %.outer, !llvm.loop !284

.lr.ph93:                                         ; preds = %.lr.ph.split, %40
  %46 = phi ptr [ %42, %40 ], [ %36, %.lr.ph.split ]
  %47 = phi ptr [ %52, %40 ], [ %32, %.lr.ph.split ]
  %48 = load i64, ptr %46, align 8, !tbaa !16
  %49 = load i64, ptr %29, align 8, !tbaa !124
  %50 = sub i64 %49, %48
  store i64 %50, ptr %29, align 8, !tbaa !124
  %51 = load ptr, ptr %26, align 8, !tbaa !96
  call void @listDelNode(ptr noundef %51, ptr noundef nonnull %47) #26
  %52 = call ptr @listNext(ptr noundef nonnull %3) #26
  %.not = icmp eq ptr %52, null
  br i1 %.not, label %.critedge.loopexit, label %40, !llvm.loop !284

.outer:                                           ; preds = %40, %.lr.ph.split
  %.lcssa87 = phi ptr [ %36, %.lr.ph.split ], [ %42, %40 ]
  %.lcssa86 = phi i64 [ %38, %.lr.ph.split ], [ %44, %40 ]
  %.068.lcssa85 = phi i64 [ %.068.ph100, %.lr.ph.split ], [ 0, %40 ]
  %53 = getelementptr inbounds nuw i8, ptr %.lcssa87, i64 16
  %54 = getelementptr inbounds nuw i8, ptr %53, i64 %.068.lcssa85
  %55 = getelementptr inbounds nuw %struct.iovec, ptr %9, i64 %indvars.iv
  store ptr %54, ptr %55, align 16, !tbaa !281
  %56 = sub i64 %.lcssa86, %.068.lcssa85
  %57 = getelementptr inbounds nuw i8, ptr %55, i64 8
  store i64 %56, ptr %57, align 8, !tbaa !283
  %indvars.iv.next = add nuw nsw i64 %indvars.iv, 1
  %58 = add i64 %56, %.170.ph99
  %59 = call ptr @listNext(ptr noundef nonnull %3) #26
  %.not88 = icmp eq ptr %59, null
  br i1 %.not88, label %.critedge.loopexit112, label %.lr.ph, !llvm.loop !284

.critedge.loopexit:                               ; preds = %.lr.ph93
  %60 = trunc nuw nsw i64 %indvars.iv to i32
  br label %.critedge

.critedge.loopexit112:                            ; preds = %.lr.ph, %.outer
  %indvars.iv.lcssa.sink = phi i64 [ %indvars.iv.next, %.outer ], [ %indvars.iv, %.lr.ph ]
  %61 = trunc i64 %indvars.iv.lcssa.sink to i32
  br label %.critedge

.critedge:                                        ; preds = %.critedge.loopexit112, %.critedge.loopexit, %24
  %.172.ph.lcssa = phi i32 [ %.07181, %24 ], [ %60, %.critedge.loopexit ], [ %61, %.critedge.loopexit112 ]
  %62 = icmp eq i32 %.172.ph.lcssa, 0
  br i1 %62, label %.loopexit, label %63

63:                                               ; preds = %.critedge
  %64 = load ptr, ptr %4, align 8, !tbaa !75
  %65 = load ptr, ptr %64, align 8, !tbaa !66
  %66 = getelementptr inbounds nuw i8, ptr %65, i64 136
  %67 = load ptr, ptr %66, align 8, !tbaa !285
  %68 = call i32 %67(ptr noundef nonnull %64, ptr noundef nonnull %9, i32 noundef range(i32 1, 0) %.172.ph.lcssa) #26
  %69 = sext i32 %68 to i64
  store i64 %69, ptr %1, align 8, !tbaa !16
  %70 = icmp slt i32 %68, 1
  br i1 %70, label %.loopexit, label %71

71:                                               ; preds = %63
  %72 = load i32, ptr %10, align 8, !tbaa !76
  %73 = icmp sgt i32 %72, 0
  br i1 %73, label %74, label %84

74:                                               ; preds = %71
  %75 = getelementptr inbounds nuw i8, ptr %0, i64 208
  %76 = load i64, ptr %75, align 8, !tbaa !85
  %77 = trunc i64 %76 to i32
  %78 = sub i32 %72, %77
  %79 = add i64 %76, %69
  store i64 %79, ptr %75, align 8, !tbaa !85
  %80 = sext i32 %78 to i64
  %.not78 = icmp slt i32 %68, %78
  br i1 %.not78, label %82, label %81

81:                                               ; preds = %74
  store i32 0, ptr %10, align 8, !tbaa !76
  store i64 0, ptr %75, align 8, !tbaa !85
  br label %82

82:                                               ; preds = %81, %74
  %83 = sub nsw i64 %69, %80
  br label %84

84:                                               ; preds = %82, %71
  %.067 = phi i64 [ %83, %82 ], [ %69, %71 ]
  %85 = load ptr, ptr %26, align 8, !tbaa !96
  call void @listRewind(ptr noundef %85, ptr noundef nonnull %3) #26
  %86 = icmp sgt i64 %.067, 0
  br i1 %86, label %.lr.ph104, label %.loopexit

.lr.ph104:                                        ; preds = %84
  %87 = getelementptr inbounds nuw i8, ptr %0, i64 208
  %88 = getelementptr inbounds nuw i8, ptr %0, i64 192
  br label %89

89:                                               ; preds = %.lr.ph104, %100
  %.1102 = phi i64 [ %.067, %.lr.ph104 ], [ %101, %100 ]
  %90 = call ptr @listNext(ptr noundef nonnull %3) #26
  %91 = getelementptr inbounds nuw i8, ptr %90, i64 16
  %92 = load ptr, ptr %91, align 8, !tbaa !123
  %93 = getelementptr inbounds nuw i8, ptr %92, i64 8
  %94 = load i64, ptr %93, align 8, !tbaa !16
  %95 = load i64, ptr %87, align 8, !tbaa !85
  %96 = sub i64 %94, %95
  %97 = icmp slt i64 %.1102, %96
  br i1 %97, label %98, label %100

98:                                               ; preds = %89
  %99 = add i64 %95, %.1102
  store i64 %99, ptr %87, align 8, !tbaa !85
  br label %.loopexit

100:                                              ; preds = %89
  %101 = sub nsw i64 %.1102, %96
  %102 = load i64, ptr %92, align 8, !tbaa !16
  %103 = load i64, ptr %88, align 8, !tbaa !124
  %104 = sub i64 %103, %102
  store i64 %104, ptr %88, align 8, !tbaa !124
  %105 = load ptr, ptr %26, align 8, !tbaa !96
  call void @listDelNode(ptr noundef %105, ptr noundef nonnull %90) #26
  store i64 0, ptr %87, align 8, !tbaa !85
  %106 = icmp sgt i64 %101, 0
  br i1 %106, label %89, label %.loopexit, !llvm.loop !286

.loopexit:                                        ; preds = %100, %84, %98, %63, %.critedge
  %.0 = phi i32 [ 0, %.critedge ], [ -1, %63 ], [ 0, %98 ], [ 0, %84 ], [ 0, %100 ]
  call void @llvm.lifetime.end.p0(i64 16, ptr nonnull %3) #26
  ret i32 %.0
}